; Function Attrs: nofree norecurse nosync nounwind sspstrong memory(argmem: read) uwtable
define dso_local range(i32 0, 2) i32 @onig_is_in_code_range(ptr noundef readonly captures(none) %0, i32 noundef %1) local_unnamed_addr #15 {
  %3 = load i32, ptr %0, align 4, !tbaa !7
  %4 = getelementptr i8, ptr %0, i64 4
  %.not = icmp eq i32 %3, 0
  br i1 %.not, label %._crit_edge, label %.lr.ph

.lr.ph:                                           ; preds = %2, %.lr.ph
  %.020 = phi i32 [ %.1, %.lr.ph ], [ %3, %2 ]
  %.01719 = phi i32 [ %.118, %.lr.ph ], [ 0, %2 ]
  %5 = add i32 %.020, %.01719
  %6 = lshr i32 %5, 1
  %7 = or i32 %5, 1
  %8 = zext i32 %7 to i64
  %9 = getelementptr i32, ptr %4, i64 %8
  %10 = load i32, ptr %9, align 4, !tbaa !7
  %11 = icmp ugt i32 %1, %10
  %12 = add nuw i32 %6, 1
  %.118 = select i1 %11, i32 %12, i32 %.01719
  %.1 = select i1 %11, i32 %.020, i32 %6
  %13 = icmp ult i32 %.118, %.1
  br i1 %13, label %.lr.ph, label %._crit_edge, !llvm.loop !223

._crit_edge:                                      ; preds = %.lr.ph, %2
  %.017.lcssa = phi i32 [ 0, %2 ], [ %.118, %.lr.ph ]
  %14 = icmp ult i32 %.017.lcssa, %3
  br i1 %14, label %15, label %22

15:                                               ; preds = %._crit_edge
  %16 = shl i32 %.017.lcssa, 1
  %17 = zext i32 %16 to i64
  %18 = getelementptr i32, ptr %4, i64 %17
  %19 = load i32, ptr %18, align 4, !tbaa !7
  %20 = icmp uge i32 %1, %19
  %21 = zext i1 %20 to i32
  br label %22

22:                                               ; preds = %15, %._crit_edge
  %23 = phi i32 [ 0, %._crit_edge ], [ %21, %15 ]
  ret i32 %23
}